target datalayout = "e-m:e-p270:32:32-p271:32:32-p272:64:64-i64:64-i128:128-f80:128-n8:16:32:64-S128"
target triple = "x86_64-pc-linux-gnu"

%struct.trav_info_t = type { i64, i64, ptr, i64, ptr, %struct.symlink_trav_t, ptr }
%struct.symlink_trav_t = type { i64, i64, ptr, i8 }

; Function Attrs: nounwind uwtable
define void @trav_info_init(ptr noundef %0, i64 noundef %1, ptr noundef %2) #0 {
  %4 = alloca ptr, align 8
  %5 = alloca i64, align 8
  %6 = alloca ptr, align 8
  %7 = alloca ptr, align 8
  store ptr %0, ptr %4, align 8, !tbaa !10
  store i64 %1, ptr %5, align 8, !tbaa !21
  store ptr %2, ptr %6, align 8, !tbaa !64
  call void @llvm.lifetime.start.p0(i64 8, ptr %7) #10
  %8 = call noalias ptr @malloc(i64 noundef 80) #13
  store ptr %8, ptr %7, align 8, !tbaa !7
  %9 = load ptr, ptr %7, align 8, !tbaa !7
  %10 = getelementptr inbounds nuw %struct.trav_info_t, ptr %9, i32 0, i32 0
  store i64 0, ptr %10, align 8, !tbaa !19
  %11 = load ptr, ptr %7, align 8, !tbaa !7
  %12 = getelementptr inbounds nuw %struct.trav_info_t, ptr %11, i32 0, i32 1
  store i64 0, ptr %12, align 8, !tbaa !12
  %13 = load ptr, ptr %7, align 8, !tbaa !7
  %14 = getelementptr inbounds nuw %struct.trav_info_t, ptr %13, i32 0, i32 4
  store ptr null, ptr %14, align 8, !tbaa !20
  %15 = load ptr, ptr %4, align 8, !tbaa !10
  %16 = load ptr, ptr %7, align 8, !tbaa !7
  %17 = getelementptr inbounds nuw %struct.trav_info_t, ptr %16, i32 0, i32 2
  store ptr %15, ptr %17, align 8, !tbaa !66
  %18 = load i64, ptr %5, align 8, !tbaa !21
  %19 = load ptr, ptr %7, align 8, !tbaa !7
  %20 = getelementptr inbounds nuw %struct.trav_info_t, ptr %19, i32 0, i32 3
  store i64 %18, ptr %20, align 8, !tbaa !67
  %21 = load ptr, ptr %7, align 8, !tbaa !7
  %22 = getelementptr inbounds nuw %struct.trav_info_t, ptr %21, i32 0, i32 5
  %23 = getelementptr inbounds nuw %struct.symlink_trav_t, ptr %22, i32 0, i32 1
  store i64 0, ptr %23, align 8, !tbaa !68
  %24 = load ptr, ptr %7, align 8, !tbaa !7
  %25 = getelementptr inbounds nuw %struct.trav_info_t, ptr %24, i32 0, i32 5
  %26 = getelementptr inbounds nuw %struct.symlink_trav_t, ptr %25, i32 0, i32 0
  store i64 0, ptr %26, align 8, !tbaa !69
  %27 = load ptr, ptr %7, align 8, !tbaa !7
  %28 = getelementptr inbounds nuw %struct.trav_info_t, ptr %27, i32 0, i32 5
  %29 = getelementptr inbounds nuw %struct.symlink_trav_t, ptr %28, i32 0, i32 2
  store ptr null, ptr %29, align 8, !tbaa !70
  %30 = load ptr, ptr %7, align 8, !tbaa !7
  %31 = getelementptr inbounds nuw %struct.trav_info_t, ptr %30, i32 0, i32 5
  %32 = getelementptr inbounds nuw %struct.symlink_trav_t, ptr %31, i32 0, i32 3
  store i8 0, ptr %32, align 8, !tbaa !71
  %33 = load ptr, ptr %7, align 8, !tbaa !7
  %34 = load ptr, ptr %6, align 8, !tbaa !64
  store ptr %33, ptr %34, align 8, !tbaa !7
  call void @llvm.lifetime.end.p0(i64 8, ptr %7) #10
  ret void
}