; Function Attrs: mustprogress nofree nounwind willreturn memory(write, inaccessiblemem: readwrite) uwtable
define void @trav_info_init(ptr noundef %0, i64 noundef %1, ptr noundef writeonly captures(none) initializes((0, 8)) %2) local_unnamed_addr #9 {
  %4 = tail call noalias dereferenceable_or_null(80) ptr @malloc(i64 noundef 80) #21
  %5 = getelementptr inbounds nuw i8, ptr %4, i64 32
  store ptr null, ptr %5, align 8, !tbaa !17
  %6 = getelementptr inbounds nuw i8, ptr %4, i64 16
  tail call void @llvm.memset.p0.i64(ptr noundef nonnull align 8 dereferenceable(16) %4, i8 0, i64 16, i1 false)
  store ptr %0, ptr %6, align 8, !tbaa !59
  %7 = getelementptr inbounds nuw i8, ptr %4, i64 24
  store i64 %1, ptr %7, align 8, !tbaa !60
  %8 = getelementptr inbounds nuw i8, ptr %4, i64 40
  tail call void @llvm.memset.p0.i64(ptr noundef nonnull align 8 dereferenceable(25) %8, i8 0, i64 25, i1 false)
  store ptr %4, ptr %2, align 8, !tbaa !61
  ret void
}